target datalayout = "e-m:e-p270:32:32-p271:32:32-p272:64:64-i64:64-i128:128-f80:128-n8:16:32:64-S128"
target triple = "x86_64-pc-linux-gnu"

; Function Attrs: mustprogress uwtable
define noundef i64 @_ZNK6icu_7710CECalendar23handleComputeMonthStartEiiaR10UErrorCode(ptr noundef nonnull align 8 dereferenceable(192) %0, i32 noundef %1, i32 noundef %2, i8 noundef signext %3, ptr noundef nonnull align 4 dereferenceable(4) %4) unnamed_addr #0 align 2 {
  %6 = alloca ptr, align 8
  %7 = alloca i32, align 4
  %8 = alloca i32, align 4
  %9 = alloca i8, align 1
  %10 = alloca ptr, align 8
  %11 = alloca i64, align 8
  store ptr %0, ptr %6, align 8, !tbaa !3
  store i32 %1, ptr %7, align 4, !tbaa !13
  store i32 %2, ptr %8, align 4, !tbaa !13
  store i8 %3, ptr %9, align 1, !tbaa !15
  store ptr %4, ptr %10, align 8, !tbaa !10
  %12 = load ptr, ptr %6, align 8
  call void @llvm.lifetime.start.p0(i64 8, ptr %11) #8
  %13 = load i32, ptr %7, align 4, !tbaa !13
  %14 = sext i32 %13 to i64
  store i64 %14, ptr %11, align 8, !tbaa !16
  %15 = load i32, ptr %8, align 4, !tbaa !13
  %16 = icmp sge i32 %15, 0
  br i1 %16, label %17, label %25

17:                                               ; preds = %5
  %18 = load i32, ptr %8, align 4, !tbaa !13
  %19 = sdiv i32 %18, 13
  %20 = sext i32 %19 to i64
  %21 = load i64, ptr %11, align 8, !tbaa !16
  %22 = add nsw i64 %21, %20
  store i64 %22, ptr %11, align 8, !tbaa !16
  %23 = load i32, ptr %8, align 4, !tbaa !13
  %24 = srem i32 %23, 13
  store i32 %24, ptr %8, align 4, !tbaa !13
  br label %37

25:                                               ; preds = %5
  %26 = load i32, ptr %8, align 4, !tbaa !13
  %27 = add nsw i32 %26, 1
  store i32 %27, ptr %8, align 4, !tbaa !13
  %28 = load i32, ptr %8, align 4, !tbaa !13
  %29 = sdiv i32 %28, 13
  %30 = sub nsw i32 %29, 1
  %31 = sext i32 %30 to i64
  %32 = load i64, ptr %11, align 8, !tbaa !16
  %33 = add nsw i64 %32, %31
  store i64 %33, ptr %11, align 8, !tbaa !16
  %34 = load i32, ptr %8, align 4, !tbaa !13
  %35 = srem i32 %34, 13
  %36 = add nsw i32 %35, 12
  store i32 %36, ptr %8, align 4, !tbaa !13
  br label %37

37:                                               ; preds = %25, %17
  %38 = load ptr, ptr %12, align 8, !tbaa !11
  %39 = getelementptr inbounds ptr, ptr %38, i64 56
  %40 = load ptr, ptr %39, align 8
  %41 = call noundef i32 %40(ptr noundef nonnull align 8 dereferenceable(192) %12)
  %42 = sext i32 %41 to i64
  %43 = load i64, ptr %11, align 8, !tbaa !16
  %44 = mul nsw i64 365, %43
  %45 = add nsw i64 %42, %44
  %46 = load i64, ptr %11, align 8, !tbaa !16
  %47 = call noundef i64 @_ZN6icu_779ClockMath16floorDivideInt64Ell(i64 noundef %46, i64 noundef 4)
  %48 = add nsw i64 %45, %47
  %49 = load i32, ptr %8, align 4, !tbaa !13
  %50 = mul nsw i32 30, %49
  %51 = sext i32 %50 to i64
  %52 = add nsw i64 %48, %51
  %53 = sub nsw i64 %52, 1
  call void @llvm.lifetime.end.p0(i64 8, ptr %11) #8
  ret i64 %53
}