; Function Attrs: mustprogress uwtable
define noundef range(i64 -9223372036854775808, 9223372036854775807) i64 @_ZNK6icu_7710CECalendar23handleComputeMonthStartEiiaR10UErrorCode(ptr noundef nonnull align 8 dereferenceable(192) %0, i32 noundef %1, i32 noundef %2, i8 signext %3, ptr nonnull readnone align 4 captures(none) %4) unnamed_addr #0 align 2 {
  %6 = icmp sgt i32 %2, -1
  br i1 %6, label %7, label %11

7:                                                ; preds = %5
  %8 = udiv i32 %2, 13
  %9 = zext nneg i32 %8 to i64
  %10 = urem i32 %2, 13
  br label %17

11:                                               ; preds = %5
  %.nonneg = xor i32 %2, -1
  %12 = udiv i32 %.nonneg, 13
  %13 = xor i32 %12, -1
  %14 = sext i32 %13 to i64
  %15 = urem i32 %.nonneg, 13
  %16 = sub nuw nsw i32 12, %15
  br label %17

17:                                               ; preds = %11, %7
  %.012 = phi i32 [ %10, %7 ], [ %16, %11 ]
  %.pn = phi i64 [ %9, %7 ], [ %14, %11 ]
  %18 = sext i32 %1 to i64
  %.0 = add nsw i64 %.pn, %18
  %19 = load ptr, ptr %0, align 8, !tbaa !3
  %20 = getelementptr inbounds nuw i8, ptr %19, i64 448
  %21 = load ptr, ptr %20, align 8
  %22 = tail call noundef i32 %21(ptr noundef nonnull align 8 dereferenceable(192) %0)
  %23 = sext i32 %22 to i64
  %24 = mul nsw i64 %.0, 365
  %25 = tail call noundef i64 @_ZN6icu_779ClockMath16floorDivideInt64Ell(i64 noundef %.0, i64 noundef 4)
  %26 = mul nuw nsw i32 %.012, 30
  %27 = zext nneg i32 %26 to i64
  %28 = add nsw i64 %27, -1
  %29 = add nsw i64 %28, %24
  %30 = add nsw i64 %29, %23
  %31 = add i64 %30, %25
  ret i64 %31
}